; Function Attrs: mustprogress nofree norecurse nosync nounwind willreturn memory(read, inaccessiblemem: none) uwtable
define hidden noundef i32 @_ZNK4cvc58internal6theory5arith6linear20LinearEqualityModule12minRowLengthEjj(ptr noundef nonnull readonly align 8 captures(none) dereferenceable(456) %0, i32 noundef %1, i32 noundef %2) local_unnamed_addr #10 align 2 {
  %4 = getelementptr inbounds nuw i8, ptr %0, i64 8
  %5 = load ptr, ptr %4, align 8, !tbaa !106
  %6 = getelementptr inbounds nuw i8, ptr %5, i64 400
  %7 = zext i32 %1 to i64
  %8 = load ptr, ptr %6, align 8, !tbaa !129
  %9 = getelementptr inbounds nuw i32, ptr %8, i64 %7
  %10 = load i32, ptr %9, align 4, !tbaa !28
  %11 = zext i32 %10 to i64
  %12 = load ptr, ptr %5, align 8, !tbaa !156
  %13 = getelementptr inbounds nuw %"class.cvc5::internal::theory::arith::linear::RowVector", ptr %12, i64 %11, i32 0, i32 1
  %14 = load i32, ptr %13, align 4, !tbaa !159
  %15 = zext i32 %2 to i64
  %16 = getelementptr inbounds nuw i32, ptr %8, i64 %15
  %17 = load i32, ptr %16, align 4, !tbaa !28
  %18 = zext i32 %17 to i64
  %19 = getelementptr inbounds nuw %"class.cvc5::internal::theory::arith::linear::RowVector", ptr %12, i64 %18, i32 0, i32 1
  %20 = load i32, ptr %19, align 4, !tbaa !159
  %21 = icmp ugt i32 %14, %20
  br i1 %21, label %25, label %22

22:                                               ; preds = %3
  %23 = icmp eq i32 %14, %20
  br i1 %23, label %24, label %25

24:                                               ; preds = %22
  %..i = tail call noundef i32 @llvm.umin.i32(i32 %1, i32 %2)
  br label %25

25:                                               ; preds = %22, %3, %24
  %.0 = phi i32 [ %..i, %24 ], [ %2, %3 ], [ %1, %22 ]
  ret i32 %.0
}